ccollections
defaultdict
p0
(c__builtin__
float
p1
tp2
Rp3
S'sum_tfidf'
p4
cnumpy.core.multiarray
scalar
p5
(cnumpy
dtype
p6
(S'f8'
p7
I0
I1
tp8
Rp9
(I3
S'<'
p10
NNNI-1
I-1
I0
tp11
bS'&\xe69\x86\x05\xa4\xfc?'
p12
tp13
Rp14
sS'baseline_score'
p15
g5
(g9
S'\xa8\x9f\xe0\xfex@\xa3?'
p16
tp17
Rp18
sS'baseline_sentence_score'
p19
g5
(g9
S'W\xed\xd9\xee\x18\x88\xf6?'
p20
tp21
Rp22
sS'baseline_sentence_perStory_score'
p23
g5
(g9
S'[\xaa\xe5(6\x83\x07@'
p24
tp25
Rp26
s.