ccollections
defaultdict
p0
(c__builtin__
float
p1
tp2
Rp3
S'sum_tfidf'
p4
cnumpy.core.multiarray
scalar
p5
(cnumpy
dtype
p6
(S'f8'
p7
I0
I1
tp8
Rp9
(I3
S'<'
p10
NNNI-1
I-1
I0
tp11
bS'|z\x85\x8aF\x15\x04@'
p12
tp13
Rp14
sS'baseline_score'
p15
g5
(g9
S'\xa0\x15\xabtL\x88\xd5?'
p16
tp17
Rp18
sS'baseline_sentence_score'
p19
g5
(g9
S'\x8d\xe5\x97L=\x83\xf9?'
p20
tp21
Rp22
s.