ccollections
defaultdict
p0
(c__builtin__
float
p1
tp2
Rp3
S'sum_tfidf'
p4
cnumpy.core.multiarray
scalar
p5
(cnumpy
dtype
p6
(S'f8'
p7
I0
I1
tp8
Rp9
(I3
S'<'
p10
NNNI-1
I-1
I0
tp11
bS'dWp\xc8\xec\xf7\x03@'
p12
tp13
Rp14
sS'baseline_score'
p15
g5
(g9
S'\x97\xe1\xdb4\xca7\xda?'
p16
tp17
Rp18
s.